; ModuleID = '1/1533.c'
source_filename = "1/1533.c"
target datalayout = "e-m:e-p270:32:32-p271:32:32-p272:64:64-i64:64-f80:128-n8:16:32:64-S128"
target triple = "x86_64-pc-linux-gnu"

@.str = private unnamed_addr constant [3 x i8] c"%d\00", align 1
@.str.1 = private unnamed_addr constant [4 x i8] c"%d\0A\00", align 1

; Function Attrs: noinline nounwind uwtable
define dso_local i32 @main() #0 {
  %1 = alloca i32, align 4
  %2 = alloca i32, align 4
  %3 = alloca i32, align 4
  %4 = alloca i32, align 4
  %5 = alloca i32, align 4
  store i32 0, i32* %1, align 4
  %6 = call i32 (i8*, ...) @__isoc99_scanf(i8* getelementptr inbounds ([3 x i8], [3 x i8]* @.str, i64 0, i64 0), i32* %2)
  store i32 0, i32* %4, align 4
  br label %7

7:                                                ; preds = %17, %0
  %8 = load i32, i32* %4, align 4
  %9 = load i32, i32* %2, align 4
  %10 = icmp slt i32 %8, %9
  br i1 %10, label %11, label %20

11:                                               ; preds = %7
  %12 = call i32 (i8*, ...) @__isoc99_scanf(i8* getelementptr inbounds ([3 x i8], [3 x i8]* @.str, i64 0, i64 0), i32* %3)
  %13 = load i32, i32* %3, align 4
  %14 = call i32 @f(i32 %13, i32 2)
  store i32 %14, i32* %5, align 4
  %15 = load i32, i32* %5, align 4
  %16 = call i32 (i8*, ...) @printf(i8* getelementptr inbounds ([4 x i8], [4 x i8]* @.str.1, i64 0, i64 0), i32 %15)
  br label %17

17:                                               ; preds = %11
  %18 = load i32, i32* %4, align 4
  %19 = add nsw i32 %18, 1
  store i32 %19, i32* %4, align 4
  br label %7

20:                                               ; preds = %7
  ret i32 0
}

declare dso_local i32 @__isoc99_scanf(i8*, ...) #1

; Function Attrs: noinline nounwind uwtable
define dso_local i32 @f(i32 %0, i32 %1) #0 {
  %3 = alloca i32, align 4
  %4 = alloca i32, align 4
  %5 = alloca i32, align 4
  %6 = alloca i32, align 4
  %7 = alloca i32, align 4
  store i32 %0, i32* %3, align 4
  store i32 %1, i32* %4, align 4
  store i32 1, i32* %5, align 4
  %8 = load i32, i32* %4, align 4
  store i32 %8, i32* %7, align 4
  br label %9

9:                                                ; preds = %35, %2
  %10 = load i32, i32* %7, align 4
  %11 = load i32, i32* %3, align 4
  %12 = icmp slt i32 %10, %11
  br i1 %12, label %13, label %38

13:                                               ; preds = %9
  %14 = load i32, i32* %3, align 4
  %15 = load i32, i32* %7, align 4
  %16 = srem i32 %14, %15
  %17 = icmp eq i32 %16, 0
  br i1 %17, label %18, label %30

18:                                               ; preds = %13
  %19 = load i32, i32* %3, align 4
  %20 = load i32, i32* %7, align 4
  %21 = sdiv i32 %19, %20
  %22 = load i32, i32* %7, align 4
  %23 = icmp sge i32 %21, %22
  br i1 %23, label %24, label %30

24:                                               ; preds = %18
  %25 = load i32, i32* %3, align 4
  %26 = load i32, i32* %7, align 4
  %27 = sdiv i32 %25, %26
  %28 = load i32, i32* %7, align 4
  %29 = call i32 @f(i32 %27, i32 %28)
  store i32 %29, i32* %6, align 4
  br label %31

30:                                               ; preds = %18, %13
  store i32 0, i32* %6, align 4
  br label %31

31:                                               ; preds = %30, %24
  %32 = load i32, i32* %5, align 4
  %33 = load i32, i32* %6, align 4
  %34 = add nsw i32 %32, %33
  store i32 %34, i32* %5, align 4
  br label %35

35:                                               ; preds = %31
  %36 = load i32, i32* %7, align 4
  %37 = add nsw i32 %36, 1
  store i32 %37, i32* %7, align 4
  br label %9

38:                                               ; preds = %9
  %39 = load i32, i32* %5, align 4
  ret i32 %39
}

declare dso_local i32 @printf(i8*, ...) #1


!llvm.module.flags = !{!0}
!llvm.ident = !{!1}

!0 = !{i32 1, !"wchar_size", i32 4}
!1 = !{!"clang version 10.0.0-4ubuntu1 "}
